; Function Attrs: mustprogress nofree norecurse nosync nounwind willreturn memory(read, inaccessiblemem: none) uwtable
define hidden noundef zeroext i1 @_ZNK14decl_collector14should_declareEP9func_decl(ptr nocapture noundef nonnull readonly align 8 dereferenceable(464) %this, ptr nocapture noundef readonly %f) local_unnamed_addr #4 align 2 {
entry:
  %m_info.i = getelementptr inbounds i8, ptr %f, i64 24
  %0 = load ptr, ptr %m_info.i, align 8
  %cmp.i = icmp eq ptr %0, null
  br i1 %cmp.i, label %lor.end, label %_ZNK4decl13get_family_idEv.exit

_ZNK4decl13get_family_idEv.exit:                  ; preds = %entry
  %1 = load i32, ptr %0, align 8
  switch i32 %1, label %lor.end.fold.split [
    i32 -1, label %lor.end
    i32 3, label %cond.false.i4.i.i
  ]

cond.false.i4.i.i:                                ; preds = %_ZNK4decl13get_family_idEv.exit
  %m_kind.i.i.i.i = getelementptr inbounds i8, ptr %0, i64 4
  %2 = load i32, ptr %m_kind.i.i.i.i, align 4
  %cmp2.i.i = icmp eq i32 %2, 0
  br label %lor.end

lor.end.fold.split:                               ; preds = %_ZNK4decl13get_family_idEv.exit
  br label %lor.end

lor.end:                                          ; preds = %_ZNK4decl13get_family_idEv.exit, %lor.end.fold.split, %entry, %cond.false.i4.i.i
  %3 = phi i1 [ true, %_ZNK4decl13get_family_idEv.exit ], [ %cmp2.i.i, %cond.false.i4.i.i ], [ true, %entry ], [ false, %lor.end.fold.split ]
  ret i1 %3
}